target datalayout = "e-m:e-p270:32:32-p271:32:32-p272:64:64-i64:64-i128:128-f80:128-n8:16:32:64-S128"
target triple = "x86_64-pc-linux-gnu"

; Function Attrs: nounwind uwtable
define hidden ptr @lj_strfmt_int(ptr noundef %0, i32 noundef %1) #0 {
  %3 = alloca ptr, align 8
  %4 = alloca i32, align 4
  %5 = alloca [11 x i8], align 1
  %6 = alloca i32, align 4
  store ptr %0, ptr %3, align 8, !tbaa !27
  store i32 %1, ptr %4, align 4, !tbaa !17
  call void @llvm.lifetime.start.p0(i64 11, ptr %5) #10
  call void @llvm.lifetime.start.p0(i64 4, ptr %6) #10
  %7 = getelementptr inbounds [11 x i8], ptr %5, i64 0, i64 0
  %8 = load i32, ptr %4, align 4, !tbaa !17
  %9 = call ptr @lj_strfmt_wint(ptr noundef %7, i32 noundef %8)
  %10 = getelementptr inbounds [11 x i8], ptr %5, i64 0, i64 0
  %11 = ptrtoint ptr %9 to i64
  %12 = ptrtoint ptr %10 to i64
  %13 = sub i64 %11, %12
  %14 = trunc i64 %13 to i32
  store i32 %14, ptr %6, align 4, !tbaa !17
  %15 = load ptr, ptr %3, align 8, !tbaa !27
  %16 = getelementptr inbounds [11 x i8], ptr %5, i64 0, i64 0
  %17 = load i32, ptr %6, align 4, !tbaa !17
  %18 = zext i32 %17 to i64
  %19 = call ptr @lj_str_new(ptr noundef %15, ptr noundef %16, i64 noundef %18)
  call void @llvm.lifetime.end.p0(i64 4, ptr %6) #10
  call void @llvm.lifetime.end.p0(i64 11, ptr %5) #10
  ret ptr %19
}