; Function Attrs: nounwind uwtable
define hidden ptr @lj_strfmt_int(ptr noundef %0, i32 noundef %1) local_unnamed_addr #5 {
  %3 = alloca [11 x i8], align 1
  call void @llvm.lifetime.start.p0(i64 11, ptr nonnull %3) #13
  %4 = call ptr @lj_strfmt_wint(ptr noundef nonnull %3, i32 noundef %1)
  %5 = ptrtoint ptr %4 to i64
  %6 = ptrtoint ptr %3 to i64
  %7 = sub i64 %5, %6
  %8 = and i64 %7, 4294967295
  %9 = call ptr @lj_str_new(ptr noundef %0, ptr noundef nonnull %3, i64 noundef %8) #13
  call void @llvm.lifetime.end.p0(i64 11, ptr nonnull %3) #13
  ret ptr %9
}